; Function Attrs: nounwind uwtable
define dso_local ptr @prefix_filename(ptr noundef %0, ptr noundef %1) local_unnamed_addr #3 {
  %3 = alloca %struct.strbuf, align 8
  call void @llvm.lifetime.start.p0(i64 24, ptr nonnull %3) #12
  call void @llvm.memcpy.p0.p0.i64(ptr noundef nonnull align 8 dereferenceable(24) %3, ptr noundef nonnull align 8 dereferenceable(24) @__const.strbuf_realpath_1.symlink, i64 24, i1 false)
  %.not = icmp eq ptr %0, null
  br i1 %.not, label %.thread, label %4

4:                                                ; preds = %2
  %5 = tail call i64 @strlen(ptr noundef nonnull dereferenceable(1) %0) #14
  %.not7 = icmp eq i64 %5, 0
  br i1 %.not7, label %.thread, label %6

6:                                                ; preds = %4
  %.val = load i8, ptr %1, align 1, !tbaa !4
  %.not10 = icmp eq i8 %.val, 47
  br i1 %.not10, label %.thread, label %7

7:                                                ; preds = %6
  call void @strbuf_add(ptr noundef nonnull %3, ptr noundef nonnull %0, i64 noundef %5) #12
  br label %.thread

.thread:                                          ; preds = %2, %6, %7, %4
  %8 = call i64 @strlen(ptr noundef nonnull dereferenceable(1) %1) #14
  call void @strbuf_add(ptr noundef nonnull %3, ptr noundef nonnull %1, i64 noundef %8) #12
  %9 = call ptr @strbuf_detach(ptr noundef nonnull %3, ptr noundef null) #12
  call void @llvm.lifetime.end.p0(i64 24, ptr nonnull %3) #12
  ret ptr %9
}